(dp1
S'dv_sigma'
p2
(dp3
S'default'
p4
cnumpy.core.multiarray
scalar
p5
(cnumpy
dtype
p6
(S'f8'
I0
I1
tRp7
(I3
S'<'
NNNI-1
I-1
I0
tbS'(\x12\x93\xd8\xb6\xacY?'
tRp8
sS'highway'
p9
g5
(g7
S'\xf5\xe4\xc5\xc1)\xdcc?'
tRp10
ssS'dtheta_sigma'
p11
(dp12
g4
g5
(g7
S'\xe8\xc1d{\x0eI\x88?'
tRp13
sg9
g5
(g7
S'R\x90\xab\xb6\x08}p?'
tRp14
ssS'ddtheta_sigma'
p15
(dp16
g4
g5
(g7
S'\x9f@\xfc\x19\xffa\xbb?'
tRp17
sg9
g5
(g7
S'\xc6\x1d\x1f\x93j\xf1\xa0?'
tRp18
ssS'type_map'
p19
(dp20
S'primary_link'
p21
g9
sS'primary'
p22
g9
sS'motorway_link'
p23
g9
sS'motorway'
p24
g9
sS'trunk'
p25
g9
sS'trunk_link'
p26
g9
ssS'v_sigma'
p27
(dp28
g4
g5
(g7
S'~\xb8\xe0\x8d\xce\x86M?'
tRp29
sg9
g5
(g7
S'H\x05f\x94\x96?X?'
tRp30
ssS'gamma'
p31
(dp32
g4
g5
(g7
S'w\x02[R]B\xd8?'
tRp33
sg9
g5
(g7
S'\xc3\x13\xaa\xf0Q\x85\xcb?'
tRp34
ss.