(dp1
S'dv_sigma'
p2
(dp3
S'default'
p4
cnumpy.core.multiarray
scalar
p5
(cnumpy
dtype
p6
(S'f8'
I0
I1
tRp7
(I3
S'<'
NNNI-1
I-1
I0
tbS'O\xf3y\x9e\xdd\xacY?'
tRp8
sS'highway'
p9
g5
(g7
S'\xbd\x9e%\xee\x01\xdec?'
tRp10
ssS'dtheta_sigma'
p11
(dp12
g4
g5
(g7
S'\x92\xbbd-\x04I\x88?'
tRp13
sg9
g5
(g7
S'\\!;\x0b\x11\x7fp?'
tRp14
ssS'ddtheta_sigma'
p15
(dp16
g4
g5
(g7
S'\xa7@\xfc\x19\xffa\xbb?'
tRp17
sg9
g5
(g7
S'\xc8\x1d\x1f\x93j\xf1\xa0?'
tRp18
ssS'type_map'
p19
(dp20
S'primary_link'
p21
g9
sS'primary'
p22
g9
sS'motorway_link'
p23
g9
sS'motorway'
p24
g9
sS'trunk'
p25
g9
sS'trunk_link'
p26
g9
ssS'v_sigma'
p27
(dp28
g4
g5
(g7
S'\xd0GQ\r\x18~M?'
tRp29
sg9
g5
(g7
S'_)_A?<X?'
tRp30
ssS'gamma'
p31
(dp32
g4
g5
(g7
S'`\x02[R]B\xd8?'
tRp33
sg9
g5
(g7
S'c\x13\xaa\xf0Q\x85\xcb?'
tRp34
ss.