(dp1
S'dv_sigma'
p2
(dp3
S'default'
p4
cnumpy.core.multiarray
scalar
p5
(cnumpy
dtype
p6
(S'f8'
I0
I1
tRp7
(I3
S'<'
NNNI-1
I-1
I0
tbS'\x89\xcaf\xe6\x13\xaeY?'
tRp8
sS'highway'
p9
g5
(g7
S'\xab}\xb1\xe8\xd5\xecc?'
tRp10
ssS'dtheta_sigma'
p11
(dp12
g4
g5
(g7
S'K\r\xca(\xf1\x18\x90?'
tRp13
sg9
g5
(g7
S'\x83C\xee\xb5\xebl\x88?'
tRp14
ssS'ddtheta_sigma'
p15
(dp16
g4
g5
(g7
S'\xb8@\xfc\x19\xffa\xbb?'
tRp17
sg9
g5
(g7
S'\xc6\x1d\x1f\x93j\xf1\xa0?'
tRp18
ssS'type_map'
p19
(dp20
S'primary_link'
p21
g9
sS'primary'
p22
g9
sS'motorway_link'
p23
g9
sS'motorway'
p24
g9
sS'trunk'
p25
g9
sS'trunk_link'
p26
g9
ssS'v_sigma'
p27
(dp28
g4
g5
(g7
S'\xffqWU.\xd0\x84?'
tRp29
sg9
g5
(g7
S'\x05\x99AJ\xae\x94\x84?'
tRp30
ssS'gamma'
p31
(dp32
g4
g5
(g7
S'\xd7\x02[R]B\xd8?'
tRp33
sg9
g5
(g7
S'v\x13\xaa\xf0Q\x85\xcb?'
tRp34
ss.