(dp1
S'dv_sigma'
p2
(dp3
S'default'
p4
cnumpy.core.multiarray
scalar
p5
(cnumpy
dtype
p6
(S'f8'
I0
I1
tRp7
(I3
S'<'
NNNI-1
I-1
I0
tbS'A\xfc\xc4\x8aq\xc6Z?'
tRp8
ssS'dtheta_sigma'
p9
(dp10
g4
g5
(g7
S'\x16\xcc"\x8br\xdf\x8a?'
tRp11
ssS'ddtheta_sigma'
p12
(dp13
g4
g5
(g7
S'9\xf1md\x1b\xa5\xba?'
tRp14
ssS'type_map'
p15
(dp16
sS'v_sigma'
p17
(dp18
g4
g5
(g7
S'\xf1\x93\xcf.\xfe%R?'
tRp19
ssS'gamma'
p20
(dp21
g4
g5
(g7
S'j\x15\x92s\x85*\xd8?'
tRp22
ss.